target datalayout = "e-m:e-p270:32:32-p271:32:32-p272:64:64-i64:64-i128:128-f80:128-n8:16:32:64-S128"
target triple = "x86_64-pc-linux-gnu"

@.str.45 = private unnamed_addr constant [4 x i8] c"-%s\00", align 1
@.str.117 = private unnamed_addr constant [34 x i8] c"wrong number or type of arguments\00", align 1

; Function Attrs: nounwind uwtable
define dso_local void @luaPushError(ptr noundef %0, ptr noundef %1) #0 {
  %3 = alloca ptr, align 8
  %4 = alloca ptr, align 8
  store ptr %0, ptr %3, align 8, !tbaa !5
  store ptr %1, ptr %4, align 8, !tbaa !10
  %5 = load ptr, ptr %3, align 8, !tbaa !5
  %6 = load ptr, ptr %4, align 8, !tbaa !10
  %7 = call ptr @sdsnew(ptr noundef %6)
  call void @luaPushErrorBuff(ptr noundef %5, ptr noundef %7)
  ret void
}

; Function Attrs: nounwind uwtable
define internal i32 @luaRedisErrorReplyCommand(ptr noundef %0) #0 {
  %2 = alloca i32, align 4
  %3 = alloca ptr, align 8
  %4 = alloca ptr, align 8
  %5 = alloca ptr, align 8
  store ptr %0, ptr %3, align 8, !tbaa !5
  %6 = load ptr, ptr %3, align 8, !tbaa !5
  %7 = call i32 @lua_gettop(ptr noundef %6)
  %8 = icmp ne i32 %7, 1
  br i1 %8, label %13, label %9

9:                                                ; preds = %1
  %10 = load ptr, ptr %3, align 8, !tbaa !5
  %11 = call i32 @lua_type(ptr noundef %10, i32 noundef -1)
  %12 = icmp ne i32 %11, 4
  br i1 %12, label %13, label %15

13:                                               ; preds = %9, %1
  %14 = load ptr, ptr %3, align 8, !tbaa !5
  call void @luaPushError(ptr noundef %14, ptr noundef @.str.117)
  store i32 1, ptr %2, align 4
  br label %33

15:                                               ; preds = %9
  call void @llvm.lifetime.start.p0(i64 8, ptr %4) #12
  %16 = load ptr, ptr %3, align 8, !tbaa !5
  %17 = call ptr @lua_tolstring(ptr noundef %16, i32 noundef -1, ptr noundef null)
  store ptr %17, ptr %4, align 8, !tbaa !10
  call void @llvm.lifetime.start.p0(i64 8, ptr %5) #12
  store ptr null, ptr %5, align 8, !tbaa !10
  %18 = load ptr, ptr %4, align 8, !tbaa !10
  %19 = getelementptr inbounds i8, ptr %18, i64 0
  %20 = load i8, ptr %19, align 1, !tbaa !13
  %21 = sext i8 %20 to i32
  %22 = icmp ne i32 %21, 45
  br i1 %22, label %23, label %27

23:                                               ; preds = %15
  %24 = call ptr @sdsempty()
  %25 = load ptr, ptr %4, align 8, !tbaa !10
  %26 = call ptr (ptr, ptr, ...) @sdscatfmt(ptr noundef %24, ptr noundef @.str.45, ptr noundef %25)
  store ptr %26, ptr %5, align 8, !tbaa !10
  br label %30

27:                                               ; preds = %15
  %28 = load ptr, ptr %4, align 8, !tbaa !10
  %29 = call ptr @sdsnew(ptr noundef %28)
  store ptr %29, ptr %5, align 8, !tbaa !10
  br label %30

30:                                               ; preds = %27, %23
  %31 = load ptr, ptr %3, align 8, !tbaa !5
  %32 = load ptr, ptr %5, align 8, !tbaa !10
  call void @luaPushErrorBuff(ptr noundef %31, ptr noundef %32)
  store i32 1, ptr %2, align 4
  call void @llvm.lifetime.end.p0(i64 8, ptr %5) #12
  call void @llvm.lifetime.end.p0(i64 8, ptr %4) #12
  br label %33

33:                                               ; preds = %30, %13
  %34 = load i32, ptr %2, align 4
  ret i32 %34
}