; Function Attrs: nounwind uwtable
define internal noundef i32 @luaRedisErrorReplyCommand(ptr noundef %0) #0 {
  %2 = tail call i32 @lua_gettop(ptr noundef %0) #11
  %.not = icmp eq i32 %2, 1
  br i1 %.not, label %3, label %5

3:                                                ; preds = %1
  %4 = tail call i32 @lua_type(ptr noundef %0, i32 noundef -1) #11
  %.not10 = icmp eq i32 %4, 4
  br i1 %.not10, label %7, label %5

5:                                                ; preds = %3, %1
  %6 = tail call ptr @sdsnew(ptr noundef nonnull @.str.117) #11
  br label %15

7:                                                ; preds = %3
  %8 = tail call ptr @lua_tolstring(ptr noundef %0, i32 noundef -1, ptr noundef null) #11
  %9 = load i8, ptr %8, align 1, !tbaa !7
  %.not11 = icmp eq i8 %9, 45
  br i1 %.not11, label %13, label %10

10:                                               ; preds = %7
  %11 = tail call ptr @sdsempty() #11
  %12 = tail call ptr (ptr, ptr, ...) @sdscatfmt(ptr noundef %11, ptr noundef nonnull @.str.45, ptr noundef nonnull %8) #11
  br label %15

13:                                               ; preds = %7
  %14 = tail call ptr @sdsnew(ptr noundef nonnull %8) #11
  br label %15

15:                                               ; preds = %10, %13, %5
  %.0.sink = phi ptr [ %6, %5 ], [ %12, %10 ], [ %14, %13 ]
  tail call void @luaPushErrorBuff(ptr noundef %0, ptr noundef %.0.sink)
  ret i32 1
}